(dp1
(I16
I6
tp2
(dp3
(I16
I6
tp4
F0.55497382198952883
s(I17
I6
tp5
F0.30890052356020942
s(I17
I5
tp6
F0.13612565445026178
ss(I17
I8
tp7
(dp8
(I16
I9
tp9
F0.13658536585365855
s(I17
I8
tp10
F0.59999999999999998
s(I16
I8
tp11
F0.26341463414634148
ss(I8
I4
tp12
(dp13
(I9
I4
tp14
F0.48520710059171596
s(I8
I4
tp15
F0.51479289940828399
ss(I13
I8
tp16
(dp17
(I13
I9
tp18
F0.20361990950226244
s(I14
I9
tp19
F0.10859728506787331
s(I14
I8
tp20
F0.076923076923076927
s(I13
I8
tp21
F0.61085972850678738
ss(I17
I7
tp22
(dp23
(I17
I8
tp24
F0.36771300448430494
s(I17
I7
tp25
F0.63228699551569512
ss(I16
I9
tp26
(dp27
(I16
I9
tp28
F0.48749999999999999
s(I15
I10
tp29
F0.25
s(I15
I9
tp30
F0.26250000000000001
ss(I10
I6
tp31
(dp32
(I9
I5
tp33
F0.13592233009708737
s(I10
I5
tp34
F0.18446601941747573
s(I10
I6
tp35
F0.60194174757281549
s(I9
I6
tp36
F0.077669902912621352
ss(I19
I4
tp37
(dp38
(I20
I5
tp39
F0.014234875444839857
s(I20
I4
tp40
F0.29181494661921709
s(I19
I4
tp41
F0.69395017793594305
ss(I18
I4
tp42
(dp43
(I19
I4
tp44
F0.47727272727272729
s(I18
I4
tp45
F0.52272727272727271
ss(I21
I9
tp46
(dp47
(I21
I9
tp48
F0.10000000000000001
s(I22
I9
tp49
F0.050000000000000003
s(I22
I8
tp50
F0.10000000000000001
s(I21
I8
tp51
F0.75
ss(I22
I9
tp52
(dp53
(I22
I8
tp54
F1
ss(I15
I8
tp55
(dp56
(I16
I8
tp57
F0.17316017316017315
s(I15
I8
tp58
F0.62770562770562766
s(I15
I7
tp59
F0.10822510822510822
s(I16
I7
tp60
F0.090909090909090912
ss(I9
I4
tp61
(dp62
(I10
I5
tp63
F0.01171875
s(I10
I4
tp64
F0.3125
s(I9
I4
tp65
F0.67578125
ss(I22
I6
tp66
(dp67
(I22
I7
tp68
F0.5
s(I22
I6
tp69
F0.5
ss(I21
I6
tp70
(dp71
(I21
I6
tp72
F0.29999999999999999
s(I20
I6
tp73
F0.25454545454545452
s(I22
I6
tp74
F0.44545454545454544
ss(I14
I9
tp75
(dp76
(I14
I9
tp77
F0.6489795918367347
s(I15
I8
tp78
F0.15510204081632653
s(I14
I8
tp79
F0.11428571428571428
s(I15
I9
tp80
F0.081632653061224483
ss(I3
I10
tp81
(dp82
(I3
I10
tp83
F0.58064516129032262
s(I3
I9
tp84
F0.34101382488479265
s(I2
I9
tp85
F0.078341013824884786
ss(I12
I9
tp86
(dp87
(I11
I8
tp88
F0.22368421052631579
s(I12
I9
tp89
F0.46052631578947367
s(I12
I8
tp90
F0.31578947368421051
ss(I16
I7
tp91
(dp92
(I16
I6
tp93
F0.34693877551020408
s(I16
I7
tp94
F0.65306122448979587
ss(I7
I5
tp95
(dp96
(I7
I5
tp97
F0.4779874213836478
s(I8
I5
tp98
F0.28930817610062892
s(I8
I4
tp99
F0.23270440251572327
ss(I17
I6
tp100
(dp101
(I17
I5
tp102
F0.57843137254901966
s(I17
I6
tp103
F0.088235294117647065
s(I17
I7
tp104
F0.33333333333333331
ss(I19
I6
tp105
(dp106
(I18
I6
tp107
F0.54838709677419351
s(I19
I6
tp108
F0.096774193548387094
s(I19
I5
tp109
F0.35483870967741937
ss(I2
I9
tp110
(dp111
(I3
I10
tp112
F0.058823529411764705
s(I3
I9
tp113
F0.70588235294117652
s(I2
I10
tp114
F0.23529411764705882
ss(I11
I5
tp115
(dp116
(I12
I6
tp117
F0.24675324675324675
s(I11
I6
tp118
F0.29220779220779219
s(I11
I5
tp119
F0.46103896103896103
ss(I10
I7
tp120
(dp121
(I10
I7
tp122
F0.66666666666666663
s(I10
I6
tp123
F0.33333333333333331
ss(I8
I5
tp124
(dp125
(I8
I6
tp126
F0.20212765957446807
s(I8
I5
tp127
F0.30851063829787234
s(I8
I4
tp128
F0.48936170212765956
ss(I18
I5
tp129
(dp130
(I18
I5
tp131
F0.40776699029126212
s(I18
I6
tp132
F0.21359223300970873
s(I18
I4
tp133
F0.37864077669902912
ss(I6
I6
tp134
(dp135
(I7
I6
tp136
F0.26395939086294418
s(I7
I5
tp137
F0.15228426395939088
s(I6
I6
tp138
F0.58375634517766495
ss(I12
I6
tp139
(dp140
(I12
I7
tp141
F0.47701149425287354
s(I12
I6
tp142
F0.52298850574712641
ss(I21
I8
tp143
(dp144
(I21
I7
tp145
F0.51851851851851849
s(I22
I8
tp146
F0.030864197530864196
s(I21
I8
tp147
F0.45061728395061729
ss(I14
I8
tp148
(dp149
(I14
I9
tp150
F0.35416666666666669
s(I15
I8
tp151
F0.58333333333333337
s(I14
I8
tp152
F0.0625
ss(I4
I8
tp153
(dp154
(I5
I8
tp155
F1
ss(I13
I7
tp156
(dp157
(I13
I8
tp158
F1
ss(I22
I7
tp159
(dp160
(I22
I7
tp161
F0.6470588235294118
s(I22
I8
tp162
F0.35294117647058826
ss(I21
I5
tp163
(dp164
(I21
I6
tp165
F0.31210191082802546
s(I21
I5
tp166
F0.45859872611464969
s(I22
I6
tp167
F0.22929936305732485
ss(I5
I7
tp168
(dp169
(I6
I7
tp170
F1
ss(I8
I6
tp171
(dp172
(I8
I6
tp173
F0.59808612440191389
s(I7
I6
tp174
F0.19138755980861244
s(I7
I7
tp175
F0.09569377990430622
s(I8
I7
tp176
F0.11483253588516747
ss(I20
I4
tp177
(dp178
(I20
I5
tp179
F0.32738095238095238
s(I20
I4
tp180
F0.51190476190476186
s(I21
I5
tp181
F0.16071428571428573
ss(I9
I6
tp182
(dp183
(I9
I5
tp184
F0.25396825396825395
s(I9
I6
tp185
F0.12698412698412698
s(I8
I6
tp186
F0.61904761904761907
ss(I22
I8
tp187
(dp188
(I21
I9
tp189
F0.084507042253521125
s(I22
I8
tp190
F0.57276995305164324
s(I21
I8
tp191
F0.34272300469483569
ss(I17
I5
tp192
(dp193
(I17
I5
tp194
F0.45859872611464969
s(I18
I5
tp195
F0.25477707006369427
s(I18
I4
tp196
F0.28662420382165604
ss(I14
I10
tp197
(dp198
(I13
I9
tp199
F0.012
s(I14
I10
tp200
F0.67200000000000004
s(I13
I10
tp201
F0.316
ss(I10
I4
tp202
(dp203
(I10
I5
tp204
F0.31976744186046513
s(I10
I4
tp205
F0.53488372093023251
s(I11
I5
tp206
F0.14534883720930233
ss(I4
I10
tp207
(dp208
(I4
I10
tp209
F0.64255319148936174
s(I3
I10
tp210
F0.35744680851063831
ss(I12
I7
tp211
(dp212
(I12
I7
tp213
F0.70526315789473681
s(I13
I7
tp214
F0.042105263157894736
s(I13
I8
tp215
F0.19649122807017544
s(I12
I8
tp216
F0.056140350877192984
ss(I15
I10
tp217
(dp218
(I14
I10
tp219
F0.46892655367231639
s(I15
I10
tp220
F0.53107344632768361
ss(I7
I7
tp221
(dp222
(I7
I8
tp223
F0.36283185840707965
s(I7
I7
tp224
F0.62831858407079644
s(I6
I8
tp225
F0.0088495575221238937
ss(I5
I9
tp226
(dp227
(I5
I9
tp228
F0.27272727272727271
s(I5
I10
tp229
F0.40404040404040403
s(I5
I8
tp230
F0.32323232323232326
ss(I18
I6
tp231
(dp232
(I18
I7
tp233
F0.044444444444444446
s(I18
I6
tp234
F0.79753086419753083
s(I17
I6
tp235
F0.083950617283950618
s(I17
I7
tp236
F0.07407407407407407
ss(I15
I7
tp237
(dp238
(I15
I7
tp239
F0.21875
s(I16
I7
tp240
F0.78125
ss(I8
I7
tp241
(dp242
(I7
I7
tp243
F0.82758620689655171
s(I8
I7
tp244
F0.17241379310344829
ss(I13
I9
tp245
(dp246
(I13
I9
tp247
F0.19658119658119658
s(I14
I9
tp248
F0.38461538461538464
s(I12
I9
tp249
F0.41880341880341881
ss(I20
I5
tp250
(dp251
(I20
I5
tp252
F0.13008130081300814
s(I21
I5
tp253
F0.47967479674796748
s(I19
I5
tp254
F0.3902439024390244
ss(I4
I9
tp255
(dp256
(I5
I9
tp257
F0.125
s(I4
I9
tp258
F0.66796875
s(I5
I8
tp259
F0.203125
s(I4
I8
tp260
F0.00390625
ss(I5
I8
tp261
(dp262
(I5
I7
tp263
F0.076612903225806453
s(I6
I7
tp264
F0.096774193548387094
s(I6
I8
tp265
F0.16935483870967741
s(I5
I8
tp266
F0.657258064516129
ss(I2
I10
tp267
(dp268
(I3
I10
tp269
F1
ss(I13
I10
tp270
(dp271
(I12
I9
tp272
F0.1853932584269663
s(I13
I10
tp273
F0.5561797752808989
s(I13
I9
tp274
F0.25842696629213485
ss(I6
I7
tp275
(dp276
(I7
I6
tp277
F0.0085836909871244635
s(I6
I7
tp278
F0.63948497854077258
s(I6
I6
tp279
F0.35193133047210301
ss(I11
I7
tp280
(dp281
(I10
I7
tp282
F0.020408163265306121
s(I11
I7
tp283
F0.66530612244897958
s(I10
I6
tp284
F0.24081632653061225
s(I11
I6
tp285
F0.073469387755102047
ss(I10
I5
tp286
(dp287
(I9
I5
tp288
F0.33898305084745761
s(I10
I5
tp289
F0.16949152542372881
s(I11
I5
tp290
F0.49152542372881358
ss(I5
I10
tp291
(dp292
(I4
I10
tp293
F0.46892655367231639
s(I5
I10
tp294
F0.53107344632768361
ss(I6
I8
tp295
(dp296
(I6
I9
tp297
F0.5178571428571429
s(I6
I7
tp298
F0.39285714285714285
s(I6
I8
tp299
F0.089285714285714288
ss(I11
I8
tp300
(dp301
(I11
I8
tp302
F0.51190476190476186
s(I11
I7
tp303
F0.48809523809523808
ss(I16
I8
tp304
(dp305
(I16
I9
tp306
F0.18685121107266436
s(I16
I8
tp307
F0.67820069204152245
s(I16
I7
tp308
F0.13494809688581316
ss(I20
I7
tp309
(dp310
(I20
I6
tp311
F1
ss(I19
I5
tp312
(dp313
(I18
I5
tp314
F0.086614173228346455
s(I18
I6
tp315
F0.17322834645669291
s(I19
I6
tp316
F0.066929133858267723
s(I19
I5
tp317
F0.67322834645669294
ss(I18
I7
tp318
(dp319
(I18
I7
tp320
F0.18181818181818182
s(I17
I7
tp321
F0.81818181818181823
ss(I3
I9
tp322
(dp323
(I3
I10
tp324
F0.012121212121212121
s(I3
I9
tp325
F0.47878787878787876
s(I4
I9
tp326
F0.50909090909090904
ss(I20
I6
tp327
(dp328
(I20
I5
tp329
F0.20085470085470086
s(I20
I6
tp330
F0.6495726495726496
s(I19
I6
tp331
F0.047008547008547008
s(I19
I5
tp332
F0.10256410256410256
ss(I15
I9
tp333
(dp334
(I15
I8
tp335
F0.1941747572815534
s(I15
I10
tp336
F0.40776699029126212
s(I15
I9
tp337
F0.39805825242718446
ss(I9
I5
tp338
(dp339
(I9
I6
tp340
F0.16883116883116883
s(I9
I5
tp341
F0.63636363636363635
s(I8
I5
tp342
F0.082251082251082255
s(I8
I6
tp343
F0.11255411255411256
ss(I6
I9
tp344
(dp345
(I5
I9
tp346
F0.26490066225165565
s(I6
I9
tp347
F0.45033112582781459
s(I5
I10
tp348
F0.28476821192052981
ss(I21
I7
tp349
(dp350
(I21
I6
tp351
F0.1076923076923077
s(I20
I7
tp352
F0.015384615384615385
s(I21
I7
tp353
F0.68461538461538463
s(I20
I6
tp354
F0.19230769230769232
ss(I7
I8
tp355
(dp356
(I6
I9
tp357
F0.13402061855670103
s(I7
I8
tp358
F0.57731958762886593
s(I6
I8
tp359
F0.28865979381443296
ss(I7
I6
tp360
(dp361
(I7
I6
tp362
F0.096153846153846159
s(I7
I5
tp363
F0.51923076923076927
s(I7
I7
tp364
F0.38461538461538464
ss(I11
I6
tp365
(dp366
(I10
I6
tp367
F0.23684210526315788
s(I12
I6
tp368
F0.59210526315789469
s(I11
I6
tp369
F0.17105263157894737
ss(I12
I8
tp370
(dp371
(I11
I8
tp372
F0.61538461538461542
s(I13
I8
tp373
F0.23076923076923078
s(I12
I8
tp374
F0.15384615384615385
ss.