(dp1
(I7
I3
tp2
(dp3
(I7
I3
tp4
F0.70046082949308752
s(I8
I3
tp5
F0.25806451612903225
s(I8
I2
tp6
F0.041474654377880185
ss(I7
I12
tp7
(dp8
(I7
I12
tp9
F0.43859649122807015
s(I6
I12
tp10
F0.56140350877192979
ss(I0
I7
tp11
(dp12
(I0
I6
tp13
F0.66666666666666663
s(I0
I7
tp14
F0.33333333333333331
ss(I1
I6
tp15
(dp16
(I1
I5
tp17
F0.2711864406779661
s(I1
I6
tp18
F0.71610169491525422
s(I0
I5
tp19
F0.012711864406779662
ss(I3
I7
tp20
(dp21
(I3
I8
tp22
F0.44755244755244755
s(I3
I7
tp23
F0.55244755244755239
ss(I2
I5
tp24
(dp25
(I2
I4
tp26
F1
ss(I8
I5
tp27
(dp28
(I7
I4
tp29
F0.043478260869565216
s(I7
I5
tp30
F0.36521739130434783
s(I8
I5
tp31
F0.59130434782608698
ss(I10
I8
tp32
(dp33
(I10
I8
tp34
F0.43636363636363634
s(I10
I9
tp35
F0.5636363636363636
ss(I5
I5
tp36
(dp37
(I4
I5
tp38
F0.50607287449392713
s(I5
I5
tp39
F0.49392712550607287
ss(I10
I7
tp40
(dp41
(I10
I7
tp42
F0.39423076923076922
s(I10
I8
tp43
F0.60576923076923073
ss(I6
I10
tp44
(dp45
(I6
I10
tp46
F0.50190114068441061
s(I7
I10
tp47
F0.49809885931558934
ss(I4
I10
tp48
(dp49
(I4
I10
tp50
F0.51459854014598538
s(I5
I10
tp51
F0.48540145985401462
ss(I2
I6
tp52
(dp53
(I2
I7
tp54
F0.5
s(I2
I6
tp55
F0.5
ss(I8
I2
tp56
(dp57
(I8
I3
tp58
F0.47368421052631576
s(I8
I2
tp59
F0.52631578947368418
ss(I5
I11
tp60
(dp61
(I6
I11
tp62
F0.52941176470588236
s(I5
I11
tp63
F0.47058823529411764
ss(I4
I5
tp64
(dp65
(I4
I5
tp66
F0.75971731448763247
s(I3
I4
tp67
F0.014134275618374558
s(I3
I5
tp68
F0.22614840989399293
ss(I7
I5
tp69
(dp70
(I7
I5
tp71
F0.50588235294117645
s(I6
I5
tp72
F0.49411764705882355
ss(I3
I12
tp73
(dp74
(I2
I11
tp75
F0.36666666666666664
s(I3
I12
tp76
F0.52666666666666662
s(I3
I11
tp77
F0.10666666666666667
ss(I8
I12
tp78
(dp79
(I7
I12
tp80
F0.38095238095238093
s(I7
I13
tp81
F0.02976190476190476
s(I8
I12
tp82
F0.5892857142857143
ss(I2
I11
tp83
(dp84
(I1
I10
tp85
F0.33950617283950618
s(I2
I11
tp86
F0.5679012345679012
s(I2
I10
tp87
F0.092592592592592587
ss(I9
I9
tp88
(dp89
(I9
I8
tp90
F0.5
s(I9
I9
tp91
F0.5
ss(I6
I13
tp92
(dp93
(I5
I13
tp94
F0.54545454545454541
s(I6
I13
tp95
F0.45454545454545453
ss(I3
I11
tp96
(dp97
(I2
I11
tp98
F1
ss(I8
I9
tp99
(dp100
(I8
I9
tp101
F0.51923076923076927
s(I8
I8
tp102
F0.48076923076923078
ss(I4
I12
tp103
(dp104
(I4
I12
tp105
F0.68224299065420557
s(I3
I12
tp106
F0.27570093457943923
s(I3
I13
tp107
F0.042056074766355138
ss(I9
I4
tp108
(dp109
(I9
I5
tp110
F0.090909090909090912
s(I10
I5
tp111
F0.32121212121212123
s(I9
I4
tp112
F0.58787878787878789
ss(I7
I2
tp113
(dp114
(I7
I3
tp115
F0.22222222222222221
s(I8
I3
tp116
F0.33333333333333331
s(I7
I2
tp117
F0.44444444444444442
ss(I11
I10
tp118
(dp119
(I11
I10
tp120
F0.54545454545454541
s(I10
I10
tp121
F0.45454545454545453
ss(I1
I5
tp122
(dp123
(I1
I5
tp124
F0.51388888888888884
s(I2
I5
tp125
F0.14583333333333334
s(I2
I4
tp126
F0.34027777777777779
ss(I3
I6
tp127
(dp128
(I3
I7
tp129
F0.44137931034482758
s(I3
I6
tp130
F0.55862068965517242
ss(I1
I10
tp131
(dp132
(I1
I10
tp133
F0.60571428571428576
s(I0
I9
tp134
F0.034285714285714287
s(I1
I9
tp135
F0.35999999999999999
ss(I8
I6
tp136
(dp137
(I8
I6
tp138
F0.72860125260960329
s(I8
I5
tp139
F0.24634655532359082
s(I9
I5
tp140
F0.025052192066805846
ss(I10
I9
tp141
(dp142
(I11
I10
tp143
F0.0085836909871244635
s(I10
I9
tp144
F0.71673819742489275
s(I10
I10
tp145
F0.27467811158798283
ss(I9
I7
tp146
(dp147
(I9
I6
tp148
F0.62962962962962965
s(I9
I7
tp149
F0.37037037037037035
ss(I6
I4
tp150
(dp151
(I6
I4
tp152
F0.71698113207547165
s(I5
I4
tp153
F0.28301886792452829
ss(I5
I4
tp154
(dp155
(I5
I4
tp156
F0.31818181818181818
s(I4
I4
tp157
F0.68181818181818177
ss(I6
I11
tp158
(dp159
(I6
I11
tp160
F0.4375
s(I7
I11
tp161
F0.5625
ss(I11
I9
tp162
(dp163
(I11
I10
tp164
F0.066666666666666666
s(I11
I9
tp165
F0.53333333333333333
s(I10
I9
tp166
F0.26666666666666666
s(I10
I10
tp167
F0.13333333333333333
ss(I0
I5
tp168
(dp169
(I1
I5
tp170
F0.5
s(I0
I5
tp171
F0.5
ss(I0
I8
tp172
(dp173
(I0
I8
tp174
F0.5
s(I0
I7
tp175
F0.5
ss(I4
I11
tp176
(dp177
(I4
I11
tp178
F0.55000000000000004
s(I5
I11
tp179
F0.45000000000000001
ss(I3
I5
tp180
(dp181
(I2
I6
tp182
F0.03968253968253968
s(I3
I6
tp183
F0.3306878306878307
s(I3
I5
tp184
F0.62962962962962965
ss(I2
I7
tp185
(dp186
(I2
I7
tp187
F0.5
s(I2
I8
tp188
F0.5
ss(I8
I3
tp189
(dp190
(I8
I3
tp191
F0.5273972602739726
s(I9
I4
tp192
F0.37671232876712329
s(I8
I4
tp193
F0.095890410958904104
ss(I5
I10
tp194
(dp195
(I6
I10
tp196
F0.38150289017341038
s(I5
I10
tp197
F0.61849710982658956
ss(I10
I10
tp198
(dp199
(I9
I10
tp200
F0.10000000000000001
s(I9
I11
tp201
F0.37333333333333335
s(I10
I10
tp202
F0.52666666666666662
ss(I7
I4
tp203
(dp204
(I7
I4
tp205
F0.59459459459459463
s(I6
I4
tp206
F0.40540540540540543
ss(I8
I13
tp207
(dp208
(I7
I13
tp209
F1
ss(I2
I8
tp210
(dp211
(I2
I8
tp212
F0.2857142857142857
s(I2
I9
tp213
F0.7142857142857143
ss(I9
I8
tp214
(dp215
(I9
I8
tp216
F0.5
s(I9
I7
tp217
F0.5
ss(I5
I13
tp218
(dp219
(I4
I13
tp220
F0.66666666666666663
s(I5
I13
tp221
F0.33333333333333331
ss(I6
I2
tp222
(dp223
(I6
I2
tp224
F0.375
s(I7
I2
tp225
F0.625
ss(I7
I11
tp226
(dp227
(I7
I11
tp228
F0.65384615384615385
s(I8
I10
tp229
F0.23076923076923078
s(I7
I10
tp230
F0.11538461538461539
ss(I3
I10
tp231
(dp232
(I4
I10
tp233
F0.37464788732394366
s(I3
I10
tp234
F0.60563380281690138
s(I4
I11
tp235
F0.019718309859154931
ss(I8
I10
tp236
(dp237
(I8
I9
tp238
F0.32898172323759789
s(I8
I10
tp239
F0.63446475195822449
s(I9
I9
tp240
F0.036553524804177548
ss(I4
I13
tp241
(dp242
(I4
I13
tp243
F0.53333333333333333
s(I4
I12
tp244
F0.26666666666666666
s(I3
I12
tp245
F0.20000000000000001
ss(I9
I11
tp246
(dp247
(I8
I11
tp248
F0.15384615384615385
s(I9
I11
tp249
F0.54487179487179482
s(I8
I12
tp250
F0.30128205128205127
ss(I3
I9
tp251
(dp252
(I3
I10
tp253
F0.25198412698412698
s(I3
I9
tp254
F0.73015873015873012
s(I2
I10
tp255
F0.017857142857142856
ss(I1
I9
tp256
(dp257
(I1
I8
tp258
F0.56756756756756754
s(I1
I9
tp259
F0.43243243243243246
ss(I8
I7
tp260
(dp261
(I8
I6
tp262
F0.49206349206349204
s(I8
I7
tp263
F0.50793650793650791
ss(I4
I2
tp264
(dp265
(I4
I2
tp266
F0.5
s(I5
I2
tp267
F0.5
ss(I9
I6
tp268
(dp269
(I8
I5
tp270
F0.23255813953488372
s(I9
I6
tp271
F0.55813953488372092
s(I8
I6
tp272
F0.20930232558139536
ss(I6
I5
tp273
(dp274
(I5
I5
tp275
F0.40514469453376206
s(I6
I5
tp276
F0.59485530546623799
ss(I5
I3
tp277
(dp278
(I6
I3
tp279
F0.56034482758620685
s(I5
I3
tp280
F0.43965517241379309
ss(I11
I7
tp281
(dp282
(I11
I8
tp283
F0.53846153846153844
s(I11
I7
tp284
F0.46153846153846156
ss(I10
I5
tp285
(dp286
(I10
I5
tp287
F0.58024691358024694
s(I10
I6
tp288
F0.3888888888888889
s(I11
I6
tp289
F0.030864197530864196
ss(I11
I8
tp290
(dp291
(I11
I8
tp292
F0.29999999999999999
s(I11
I9
tp293
F0.69999999999999996
ss(I7
I13
tp294
(dp295
(I7
I13
tp296
F0.5
s(I6
I13
tp297
F0.5
ss(I0
I6
tp298
(dp299
(I1
I5
tp300
F0.25
s(I1
I6
tp301
F0.25
s(I0
I6
tp302
F0.5
ss(I1
I7
tp303
(dp304
(I1
I6
tp305
F0.61764705882352944
s(I1
I7
tp306
F0.38235294117647056
ss(I0
I9
tp307
(dp308
(I0
I9
tp309
F0.5
s(I0
I8
tp310
F0.5
ss(I3
I4
tp311
(dp312
(I3
I4
tp313
F0.21052631578947367
s(I3
I3
tp314
F0.57894736842105265
s(I3
I5
tp315
F0.21052631578947367
ss(I2
I4
tp316
(dp317
(I3
I4
tp318
F0.14012738853503184
s(I2
I4
tp319
F0.55414012738853502
s(I3
I3
tp320
F0.30573248407643311
ss(I8
I4
tp321
(dp322
(I9
I4
tp323
F1
ss(I10
I6
tp324
(dp325
(I10
I7
tp326
F0.55263157894736847
s(I10
I6
tp327
F0.44736842105263158
ss(I3
I3
tp328
(dp329
(I4
I2
tp330
F0.02976190476190476
s(I3
I3
tp331
F0.58333333333333337
s(I4
I3
tp332
F0.38690476190476192
ss(I2
I9
tp333
(dp334
(I3
I10
tp335
F0.15625
s(I3
I9
tp336
F0.28125
s(I2
I9
tp337
F0.5625
ss(I5
I12
tp338
(dp339
(I5
I12
tp340
F0.41818181818181815
s(I4
I12
tp341
F0.58181818181818179
ss(I4
I4
tp342
(dp343
(I4
I5
tp344
F0.23809523809523808
s(I4
I4
tp345
F0.6428571428571429
s(I3
I5
tp346
F0.11904761904761904
ss(I6
I3
tp347
(dp348
(I6
I3
tp349
F0.42982456140350878
s(I7
I3
tp350
F0.57017543859649122
ss(I7
I10
tp351
(dp352
(I8
I11
tp353
F0.015679442508710801
s(I8
I10
tp354
F0.21428571428571427
s(I7
I10
tp355
F0.77003484320557491
ss(I3
I13
tp356
(dp357
(I3
I12
tp358
F0.45000000000000001
s(I3
I13
tp359
F0.55000000000000004
ss(I8
I11
tp360
(dp361
(I8
I11
tp362
F0.20454545454545456
s(I8
I10
tp363
F0.25
s(I8
I12
tp364
F0.54545454545454541
ss(I2
I10
tp365
(dp366
(I1
I10
tp367
F0.45454545454545453
s(I3
I10
tp368
F0.27272727272727271
s(I2
I10
tp369
F0.27272727272727271
ss(I9
I10
tp370
(dp371
(I9
I11
tp372
F0.83333333333333337
s(I9
I9
tp373
F0.16666666666666666
ss(I6
I12
tp374
(dp375
(I6
I12
tp376
F0.44827586206896552
s(I5
I12
tp377
F0.55172413793103448
ss(I3
I8
tp378
(dp379
(I3
I8
tp380
F0.5512367491166078
s(I3
I9
tp381
F0.44876325088339225
ss(I1
I8
tp382
(dp383
(I1
I8
tp384
F0.41121495327102803
s(I1
I7
tp385
F0.58878504672897192
ss(I8
I8
tp386
(dp387
(I8
I8
tp388
F0.58193979933110362
s(I8
I7
tp389
F0.41806020066889632
ss(I4
I3
tp390
(dp391
(I4
I3
tp392
F0.3925233644859813
s(I5
I3
tp393
F0.60747663551401865
ss(I9
I5
tp394
(dp395
(I9
I5
tp396
F0.30769230769230771
s(I10
I5
tp397
F0.38461538461538464
s(I8
I5
tp398
F0.30769230769230771
ss(I5
I2
tp399
(dp400
(I6
I2
tp401
F0.5
s(I5
I2
tp402
F0.5
ss(I11
I6
tp403
(dp404
(I11
I7
tp405
F0.4375
s(I11
I6
tp406
F0.5625
ss.